target datalayout = "e-m:e-p270:32:32-p271:32:32-p272:64:64-i64:64-i128:128-f80:128-n8:16:32:64-S128"
target triple = "x86_64-pc-linux-gnu"

%struct.UConverter = type { ptr, ptr, ptr, ptr, ptr, ptr, ptr, i32, i8, i8, i8, i8, i8, [7 x i8], i32, i32, i32, i32, i8, i8, i8, i8, i8, i8, i8, i8, [8 x i8], [32 x i8], [2 x i16], [2 x i16], [32 x i16], i32, [19 x i16], [31 x i8], i8, i8, i8, i32 }

; Function Attrs: inlinehint mustprogress nounwind uwtable
define internal noundef signext i8 @_ZL9U_FAILURE10UErrorCode(i32 noundef %0) #2 {
  %2 = alloca i32, align 4
  store i32 %0, ptr %2, align 4, !tbaa !9
  %3 = load i32, ptr %2, align 4, !tbaa !9
  %4 = icmp sgt i32 %3, 0
  %5 = zext i1 %4 to i8
  ret i8 %5
}

; Function Attrs: mustprogress uwtable
define void @ucnv_getSubstChars_77(ptr noundef %0, ptr noundef %1, ptr noundef %2, ptr noundef %3) #0 {
  %5 = alloca ptr, align 8
  %6 = alloca ptr, align 8
  %7 = alloca ptr, align 8
  %8 = alloca ptr, align 8
  store ptr %0, ptr %5, align 8, !tbaa !11
  store ptr %1, ptr %6, align 8, !tbaa !3
  store ptr %2, ptr %7, align 8, !tbaa !3
  store ptr %3, ptr %8, align 8, !tbaa !8
  %9 = load ptr, ptr %8, align 8, !tbaa !8
  %10 = load i32, ptr %9, align 4, !tbaa !9
  %11 = call noundef signext i8 @_ZL9U_FAILURE10UErrorCode(i32 noundef %10)
  %12 = icmp ne i8 %11, 0
  br i1 %12, label %13, label %14

13:                                               ; preds = %4
  br label %48

14:                                               ; preds = %4
  %15 = load ptr, ptr %5, align 8, !tbaa !11
  %16 = getelementptr inbounds nuw %struct.UConverter, ptr %15, i32 0, i32 19
  %17 = load i8, ptr %16, align 1, !tbaa !52
  %18 = sext i8 %17 to i32
  %19 = icmp sle i32 %18, 0
  br i1 %19, label %20, label %22

20:                                               ; preds = %14
  %21 = load ptr, ptr %7, align 8, !tbaa !3
  store i8 0, ptr %21, align 1, !tbaa !19
  br label %48

22:                                               ; preds = %14
  %23 = load ptr, ptr %7, align 8, !tbaa !3
  %24 = load i8, ptr %23, align 1, !tbaa !19
  %25 = sext i8 %24 to i32
  %26 = load ptr, ptr %5, align 8, !tbaa !11
  %27 = getelementptr inbounds nuw %struct.UConverter, ptr %26, i32 0, i32 19
  %28 = load i8, ptr %27, align 1, !tbaa !52
  %29 = sext i8 %28 to i32
  %30 = icmp slt i32 %25, %29
  br i1 %30, label %31, label %33

31:                                               ; preds = %22
  %32 = load ptr, ptr %8, align 8, !tbaa !8
  store i32 8, ptr %32, align 4, !tbaa !9
  br label %48

33:                                               ; preds = %22
  br label %34

34:                                               ; preds = %33
  %35 = load ptr, ptr %6, align 8, !tbaa !3
  %36 = load ptr, ptr %5, align 8, !tbaa !11
  %37 = getelementptr inbounds nuw %struct.UConverter, ptr %36, i32 0, i32 5
  %38 = load ptr, ptr %37, align 8, !tbaa !40
  %39 = load ptr, ptr %5, align 8, !tbaa !11
  %40 = getelementptr inbounds nuw %struct.UConverter, ptr %39, i32 0, i32 19
  %41 = load i8, ptr %40, align 1, !tbaa !52
  %42 = sext i8 %41 to i64
  call void @llvm.memcpy.p0.p0.i64(ptr align 1 %35, ptr align 1 %38, i64 %42, i1 false)
  br label %43

43:                                               ; preds = %34
  %44 = load ptr, ptr %5, align 8, !tbaa !11
  %45 = getelementptr inbounds nuw %struct.UConverter, ptr %44, i32 0, i32 19
  %46 = load i8, ptr %45, align 1, !tbaa !52
  %47 = load ptr, ptr %7, align 8, !tbaa !3
  store i8 %46, ptr %47, align 1, !tbaa !19
  br label %48

48:                                               ; preds = %43, %31, %20, %13
  ret void
}