; Function Attrs: mustprogress nofree norecurse nosync nounwind willreturn memory(readwrite, inaccessiblemem: none) uwtable
define void @ucnv_getSubstChars_77(ptr noundef readonly captures(none) %0, ptr noundef writeonly captures(none) %1, ptr noundef captures(none) %2, ptr noundef captures(none) %3) local_unnamed_addr #6 {
  %5 = load i32, ptr %3, align 4, !tbaa !3
  %6 = icmp slt i32 %5, 1
  br i1 %6, label %7, label %21

7:                                                ; preds = %4
  %8 = getelementptr inbounds nuw i8, ptr %0, i64 89
  %9 = load i8, ptr %8, align 1, !tbaa !43
  %10 = icmp slt i8 %9, 1
  br i1 %10, label %11, label %12

11:                                               ; preds = %7
  store i8 0, ptr %2, align 1, !tbaa !7
  br label %21

12:                                               ; preds = %7
  %13 = load i8, ptr %2, align 1, !tbaa !7
  %14 = icmp slt i8 %13, %9
  br i1 %14, label %15, label %16

15:                                               ; preds = %12
  store i32 8, ptr %3, align 4, !tbaa !3
  br label %21

16:                                               ; preds = %12
  %17 = getelementptr inbounds nuw i8, ptr %0, i64 40
  %18 = load ptr, ptr %17, align 8, !tbaa !29
  %19 = zext nneg i8 %9 to i64
  tail call void @llvm.memcpy.p0.p0.i64(ptr align 1 %1, ptr align 1 %18, i64 %19, i1 false)
  %20 = load i8, ptr %8, align 1, !tbaa !43
  store i8 %20, ptr %2, align 1, !tbaa !7
  br label %21

21:                                               ; preds = %4, %16, %15, %11
  ret void
}